
build/bin/system.bin:     file format elf32-i386


Disassembly of section .text:

00100000 <tty_set_theme-0xc>:
  100000:	02 b0 ad 1b 03 00    	add    0x31bad(%eax),%dh
  100006:	00 00                	add    %al,(%eax)
  100008:	fb                   	sti    
  100009:	4f                   	dec    %edi
  10000a:	52                   	push   %edx
  10000b:	e4                 	in     $0x83,%al

0010000c <tty_set_theme>:
  10000c:	83 ec 08             	sub    $0x8,%esp
  10000f:	8b 54 24 0c          	mov    0xc(%esp),%edx
  100013:	8b 44 24 10          	mov    0x10(%esp),%eax
  100017:	66 89 54 24 04       	mov    %dx,0x4(%esp)
  10001c:	66 89 04 24          	mov    %ax,(%esp)
  100020:	0f b7 04 24          	movzwl (%esp),%eax
  100024:	c1 e0 04             	shl    $0x4,%eax
  100027:	89 c2                	mov    %eax,%edx
  100029:	0f b7 44 24 04       	movzwl 0x4(%esp),%eax
  10002e:	09 d0                	or     %edx,%eax
  100030:	c1 e0 08             	shl    $0x8,%eax
  100033:	66 a3 00 10 10 00    	mov    %ax,0x101000
  100039:	90                   	nop
  10003a:	83 c4 08             	add    $0x8,%esp
  10003d:	c3                   	ret    

0010003e <tty_put_char>:
  10003e:	53                   	push   %ebx
  10003f:	83 ec 18             	sub    $0x18,%esp
  100042:	8b 44 24 20          	mov    0x20(%esp),%eax
  100046:	88 44 24 0c          	mov    %al,0xc(%esp)
  10004a:	80 7c 24 0c 0a       	cmpb   $0xa,0xc(%esp)
  10004f:	75 1f                	jne    100070 <tty_put_char+0x32>
  100051:	c7 05 04 10 10 00 00 	movl   $0x0,0x101004
  100058:	00 00 00 
  10005b:	0f b7 05 08 10 10 00 	movzwl 0x101008,%eax
  100062:	83 c0 01             	add    $0x1,%eax
  100065:	66 a3 08 10 10 00    	mov    %ax,0x101008
  10006b:	e9 9a 00 00 00       	jmp    10010a <tty_put_char+0xcc>
  100070:	80 7c 24 0c 09       	cmpb   $0x9,0xc(%esp)
  100075:	75 12                	jne    100089 <tty_put_char+0x4b>
  100077:	a1 04 10 10 00       	mov    0x101004,%eax
  10007c:	83 c0 04             	add    $0x4,%eax
  10007f:	a3 04 10 10 00       	mov    %eax,0x101004
  100084:	e9 81 00 00 00       	jmp    10010a <tty_put_char+0xcc>
  100089:	80 7c 24 0c 0d       	cmpb   $0xd,0xc(%esp)
  10008e:	75 0c                	jne    10009c <tty_put_char+0x5e>
  100090:	c7 05 04 10 10 00 00 	movl   $0x0,0x101004
  100097:	00 00 00 
  10009a:	eb 6e                	jmp    10010a <tty_put_char+0xcc>
  10009c:	66 0f be 54 24 0c    	movsbw 0xc(%esp),%dx
  1000a2:	0f b7 05 00 10 10 00 	movzwl 0x101000,%eax
  1000a9:	89 d1                	mov    %edx,%ecx
  1000ab:	09 c1                	or     %eax,%ecx
  1000ad:	8b 1d 00 a0 10 00    	mov    0x10a000,%ebx
  1000b3:	0f b7 05 08 10 10 00 	movzwl 0x101008,%eax
  1000ba:	0f b7 d0             	movzwl %ax,%edx
  1000bd:	89 d0                	mov    %edx,%eax
  1000bf:	c1 e0 02             	shl    $0x2,%eax
  1000c2:	01 d0                	add    %edx,%eax
  1000c4:	c1 e0 04             	shl    $0x4,%eax
  1000c7:	89 c2                	mov    %eax,%edx
  1000c9:	a1 04 10 10 00       	mov    0x101004,%eax
  1000ce:	01 d0                	add    %edx,%eax
  1000d0:	01 c0                	add    %eax,%eax
  1000d2:	01 d8                	add    %ebx,%eax
  1000d4:	89 ca                	mov    %ecx,%edx
  1000d6:	66 89 10             	mov    %dx,(%eax)
  1000d9:	a1 04 10 10 00       	mov    0x101004,%eax
  1000de:	83 c0 01             	add    $0x1,%eax
  1000e1:	a3 04 10 10 00       	mov    %eax,0x101004
  1000e6:	a1 04 10 10 00       	mov    0x101004,%eax
  1000eb:	83 f8 4f             	cmp    $0x4f,%eax
  1000ee:	76 1a                	jbe    10010a <tty_put_char+0xcc>
  1000f0:	c7 05 04 10 10 00 00 	movl   $0x0,0x101004
  1000f7:	00 00 00 
  1000fa:	0f b7 05 08 10 10 00 	movzwl 0x101008,%eax
  100101:	83 c0 01             	add    $0x1,%eax
  100104:	66 a3 08 10 10 00    	mov    %ax,0x101008
  10010a:	a1 04 10 10 00       	mov    0x101004,%eax
  10010f:	83 f8 4f             	cmp    $0x4f,%eax
  100112:	76 1a                	jbe    10012e <tty_put_char+0xf0>
  100114:	c7 05 04 10 10 00 00 	movl   $0x0,0x101004
  10011b:	00 00 00 
  10011e:	0f b7 05 08 10 10 00 	movzwl 0x101008,%eax
  100125:	83 c0 01             	add    $0x1,%eax
  100128:	66 a3 08 10 10 00    	mov    %ax,0x101008
  10012e:	0f b7 05 08 10 10 00 	movzwl 0x101008,%eax
  100135:	66 83 f8 18          	cmp    $0x18,%ax
  100139:	76 15                	jbe    100150 <tty_put_char+0x112>
  10013b:	e8 47 00 00 00       	call   100187 <tty_scroll_up>
  100140:	0f b7 05 08 10 10 00 	movzwl 0x101008,%eax
  100147:	83 e8 01             	sub    $0x1,%eax
  10014a:	66 a3 08 10 10 00    	mov    %ax,0x101008
  100150:	90                   	nop
  100151:	83 c4 18             	add    $0x18,%esp
  100154:	5b                   	pop    %ebx
  100155:	c3                   	ret    

00100156 <tty_put_str>:
  100156:	83 ec 0c             	sub    $0xc,%esp
  100159:	eb 1b                	jmp    100176 <tty_put_str+0x20>
  10015b:	8b 44 24 10          	mov    0x10(%esp),%eax
  10015f:	0f b6 00             	movzbl (%eax),%eax
  100162:	0f be c0             	movsbl %al,%eax
  100165:	83 ec 0c             	sub    $0xc,%esp
  100168:	50                   	push   %eax
  100169:	e8 d0 fe ff ff       	call   10003e <tty_put_char>
  10016e:	83 c4 10             	add    $0x10,%esp
  100171:	83 44 24 10 01       	addl   $0x1,0x10(%esp)
  100176:	8b 44 24 10          	mov    0x10(%esp),%eax
  10017a:	0f b6 00             	movzbl (%eax),%eax
  10017d:	84 c0                	test   %al,%al
  10017f:	75 da                	jne    10015b <tty_put_str+0x5>
  100181:	90                   	nop
  100182:	90                   	nop
  100183:	83 c4 0c             	add    $0xc,%esp
  100186:	c3                   	ret    

00100187 <tty_scroll_up>:
  100187:	90                   	nop
  100188:	c3                   	ret    

00100189 <tty_clear>:
  100189:	83 ec 10             	sub    $0x10,%esp
  10018c:	c7 44 24 0c 00 00 00 	movl   $0x0,0xc(%esp)
  100193:	00 
  100194:	eb 1d                	jmp    1001b3 <tty_clear+0x2a>
  100196:	8b 15 00 a0 10 00    	mov    0x10a000,%edx
  10019c:	8b 44 24 0c          	mov    0xc(%esp),%eax
  1001a0:	01 c0                	add    %eax,%eax
  1001a2:	01 c2                	add    %eax,%edx
  1001a4:	0f b7 05 00 10 10 00 	movzwl 0x101000,%eax
  1001ab:	66 89 02             	mov    %ax,(%edx)
  1001ae:	83 44 24 0c 01       	addl   $0x1,0xc(%esp)
  1001b3:	81 7c 24 0c cf 07 00 	cmpl   $0x7cf,0xc(%esp)
  1001ba:	00 
  1001bb:	76 d9                	jbe    100196 <tty_clear+0xd>
  1001bd:	c7 05 04 10 10 00 00 	movl   $0x0,0x101004
  1001c4:	00 00 00 
  1001c7:	66 c7 05 08 10 10 00 	movw   $0x0,0x101008
  1001ce:	00 00 
  1001d0:	90                   	nop
  1001d1:	83 c4 10             	add    $0x10,%esp
  1001d4:	c3                   	ret    

001001d5 <_kernel_init>:
  1001d5:	83 ec 0c             	sub    $0xc,%esp
  1001d8:	e8 eb 00 00 00       	call   1002c8 <_init_gdt>
  1001dd:	e8 82 02 00 00       	call   100464 <_init_idt>
  1001e2:	90                   	nop
  1001e3:	83 c4 0c             	add    $0xc,%esp
  1001e6:	c3                   	ret    

001001e7 <_kernel_main>:
  1001e7:	83 ec 0c             	sub    $0xc,%esp
  1001ea:	83 ec 08             	sub    $0x8,%esp
  1001ed:	6a 00                	push   $0x0
  1001ef:	6a 02                	push   $0x2
  1001f1:	e8 16 fe ff ff       	call   10000c <tty_set_theme>
  1001f6:	83 c4 10             	add    $0x10,%esp
  1001f9:	83 ec 0c             	sub    $0xc,%esp
  1001fc:	68 00 b0 10 00       	push   $0x10b000
  100201:	e8 50 ff ff ff       	call   100156 <tty_put_str>
  100206:	83 c4 10             	add    $0x10,%esp
  100209:	cd 00                	int    $0x0
  10020b:	90                   	nop
  10020c:	83 c4 0c             	add    $0xc,%esp
  10020f:	c3                   	ret    

00100210 <_set_gdt_entry>:
  100210:	55                   	push   %ebp
  100211:	57                   	push   %edi
  100212:	56                   	push   %esi
  100213:	53                   	push   %ebx
  100214:	8b 44 24 18          	mov    0x18(%esp),%eax
  100218:	25 00 00 00 ff       	and    $0xff000000,%eax
  10021d:	0b 44 24 20          	or     0x20(%esp),%eax
  100221:	89 c2                	mov    %eax,%edx
  100223:	8b 44 24 1c          	mov    0x1c(%esp),%eax
  100227:	25 00 00 0f 00       	and    $0xf0000,%eax
  10022c:	09 c2                	or     %eax,%edx
  10022e:	8b 44 24 18          	mov    0x18(%esp),%eax
  100232:	25 00 00 00 ff       	and    $0xff000000,%eax
  100237:	09 d0                	or     %edx,%eax
  100239:	ba 00 00 00 00       	mov    $0x0,%edx
  10023e:	8b 74 24 14          	mov    0x14(%esp),%esi
  100242:	89 04 f5 20 10 10 00 	mov    %eax,0x101020(,%esi,8)
  100249:	89 14 f5 24 10 10 00 	mov    %edx,0x101024(,%esi,8)
  100250:	8b 44 24 14          	mov    0x14(%esp),%eax
  100254:	8b 14 c5 24 10 10 00 	mov    0x101024(,%eax,8),%edx
  10025b:	8b 04 c5 20 10 10 00 	mov    0x101020(,%eax,8),%eax
  100262:	89 c2                	mov    %eax,%edx
  100264:	b8 00 00 00 00       	mov    $0x0,%eax
  100269:	8b 74 24 14          	mov    0x14(%esp),%esi
  10026d:	89 04 f5 20 10 10 00 	mov    %eax,0x101020(,%esi,8)
  100274:	89 14 f5 24 10 10 00 	mov    %edx,0x101024(,%esi,8)
  10027b:	8b 44 24 14          	mov    0x14(%esp),%eax
  10027f:	8b 14 c5 24 10 10 00 	mov    0x101024(,%eax,8),%edx
  100286:	8b 04 c5 20 10 10 00 	mov    0x101020(,%eax,8),%eax
  10028d:	8b 74 24 18          	mov    0x18(%esp),%esi
  100291:	89 f7                	mov    %esi,%edi
  100293:	c1 e7 10             	shl    $0x10,%edi
  100296:	8b 74 24 1c          	mov    0x1c(%esp),%esi
  10029a:	0f b7 f6             	movzwl %si,%esi
  10029d:	09 fe                	or     %edi,%esi
  10029f:	bf 00 00 00 00       	mov    $0x0,%edi
  1002a4:	89 c5                	mov    %eax,%ebp
  1002a6:	09 f5                	or     %esi,%ebp
  1002a8:	89 e9                	mov    %ebp,%ecx
  1002aa:	89 d0                	mov    %edx,%eax
  1002ac:	09 f8                	or     %edi,%eax
  1002ae:	89 c3                	mov    %eax,%ebx
  1002b0:	8b 44 24 14          	mov    0x14(%esp),%eax
  1002b4:	89 0c c5 20 10 10 00 	mov    %ecx,0x101020(,%eax,8)
  1002bb:	89 1c c5 24 10 10 00 	mov    %ebx,0x101024(,%eax,8)
  1002c2:	90                   	nop
  1002c3:	5b                   	pop    %ebx
  1002c4:	5e                   	pop    %esi
  1002c5:	5f                   	pop    %edi
  1002c6:	5d                   	pop    %ebp
  1002c7:	c3                   	ret    

001002c8 <_init_gdt>:
  1002c8:	83 ec 04             	sub    $0x4,%esp
  1002cb:	6a 00                	push   $0x0
  1002cd:	6a 00                	push   $0x0
  1002cf:	6a 00                	push   $0x0
  1002d1:	6a 00                	push   $0x0
  1002d3:	e8 38 ff ff ff       	call   100210 <_set_gdt_entry>
  1002d8:	83 c4 10             	add    $0x10,%esp
  1002db:	68 00 9a c0 00       	push   $0xc09a00
  1002e0:	68 ff ff 0f 00       	push   $0xfffff
  1002e5:	6a 00                	push   $0x0
  1002e7:	6a 01                	push   $0x1
  1002e9:	e8 22 ff ff ff       	call   100210 <_set_gdt_entry>
  1002ee:	83 c4 10             	add    $0x10,%esp
  1002f1:	68 00 92 c0 00       	push   $0xc09200
  1002f6:	68 ff ff 0f 00       	push   $0xfffff
  1002fb:	6a 00                	push   $0x0
  1002fd:	6a 02                	push   $0x2
  1002ff:	e8 0c ff ff ff       	call   100210 <_set_gdt_entry>
  100304:	83 c4 10             	add    $0x10,%esp
  100307:	68 00 fa c0 00       	push   $0xc0fa00
  10030c:	68 ff ff 0f 00       	push   $0xfffff
  100311:	6a 00                	push   $0x0
  100313:	6a 03                	push   $0x3
  100315:	e8 f6 fe ff ff       	call   100210 <_set_gdt_entry>
  10031a:	83 c4 10             	add    $0x10,%esp
  10031d:	68 00 f2 c0 00       	push   $0xc0f200
  100322:	68 ff ff 0f 00       	push   $0xfffff
  100327:	6a 00                	push   $0x0
  100329:	6a 04                	push   $0x4
  10032b:	e8 e0 fe ff ff       	call   100210 <_set_gdt_entry>
  100330:	83 c4 10             	add    $0x10,%esp
  100333:	90                   	nop
  100334:	83 c4 04             	add    $0x4,%esp
  100337:	c3                   	ret    

00100338 <start_>:
  100338:	bc 14 90 10 00       	mov    $0x109014,%esp
  10033d:	e8 93 fe ff ff       	call   1001d5 <_kernel_init>
  100342:	83 ec 06             	sub    $0x6,%esp
  100345:	c7 44 24 02 20 10 10 	movl   $0x101020,0x2(%esp)
  10034c:	00 
  10034d:	66 a1 04 a0 10 00    	mov    0x10a004,%ax
  100353:	66 89 04 24          	mov    %ax,(%esp)
  100357:	0f 01 14 24          	lgdtl  (%esp)
  10035b:	c7 44 24 02 20 90 10 	movl   $0x109020,0x2(%esp)
  100362:	00 
  100363:	66 a1 06 a0 10 00    	mov    0x10a006,%ax
  100369:	66 89 04 24          	mov    %ax,(%esp)
  10036d:	0f 01 1c 24          	lidtl  (%esp)
  100371:	83 c4 06             	add    $0x6,%esp
  100374:	66 b9 10 00          	mov    $0x10,%cx
  100378:	8e c1                	mov    %ecx,%es
  10037a:	8e d9                	mov    %ecx,%ds
  10037c:	8e e1                	mov    %ecx,%fs
  10037e:	8e e9                	mov    %ecx,%gs
  100380:	8e d1                	mov    %ecx,%ss
  100382:	66 6a 08             	pushw  $0x8
  100385:	68 8b 03 10 00       	push   $0x10038b
  10038a:	cb                   	lret   

0010038b <_after_gdt>:
  10038b:	53                   	push   %ebx
  10038c:	e8 56 fe ff ff       	call   1001e7 <_kernel_main>
  100391:	fa                   	cli    

00100392 <j_>:
  100392:	f4                   	hlt    
  100393:	eb fd                	jmp    100392 <j_>

00100395 <_set_idt_entry>:
  100395:	55                   	push   %ebp
  100396:	57                   	push   %edi
  100397:	56                   	push   %esi
  100398:	53                   	push   %ebx
  100399:	83 ec 1c             	sub    $0x1c,%esp
  10039c:	8b 44 24 34          	mov    0x34(%esp),%eax
  1003a0:	8b 54 24 3c          	mov    0x3c(%esp),%edx
  1003a4:	66 89 44 24 04       	mov    %ax,0x4(%esp)
  1003a9:	89 d0                	mov    %edx,%eax
  1003ab:	88 04 24             	mov    %al,(%esp)
  1003ae:	8b 44 24 38          	mov    0x38(%esp),%eax
  1003b2:	89 44 24 14          	mov    %eax,0x14(%esp)
  1003b6:	8b 44 24 14          	mov    0x14(%esp),%eax
  1003ba:	66 b8 00 00          	mov    $0x0,%ax
  1003be:	89 c2                	mov    %eax,%edx
  1003c0:	0f b6 04 24          	movzbl (%esp),%eax
  1003c4:	c1 e0 0d             	shl    $0xd,%eax
  1003c7:	25 00 60 00 00       	and    $0x6000,%eax
  1003cc:	09 d0                	or     %edx,%eax
  1003ce:	80 cc 8e             	or     $0x8e,%ah
  1003d1:	ba 00 00 00 00       	mov    $0x0,%edx
  1003d6:	8b 74 24 30          	mov    0x30(%esp),%esi
  1003da:	89 04 f5 20 90 10 00 	mov    %eax,0x109020(,%esi,8)
  1003e1:	89 14 f5 24 90 10 00 	mov    %edx,0x109024(,%esi,8)
  1003e8:	8b 44 24 30          	mov    0x30(%esp),%eax
  1003ec:	8b 14 c5 24 90 10 00 	mov    0x109024(,%eax,8),%edx
  1003f3:	8b 04 c5 20 90 10 00 	mov    0x109020(,%eax,8),%eax
  1003fa:	89 c2                	mov    %eax,%edx
  1003fc:	b8 00 00 00 00       	mov    $0x0,%eax
  100401:	8b 74 24 30          	mov    0x30(%esp),%esi
  100405:	89 04 f5 20 90 10 00 	mov    %eax,0x109020(,%esi,8)
  10040c:	89 14 f5 24 90 10 00 	mov    %edx,0x109024(,%esi,8)
  100413:	8b 44 24 30          	mov    0x30(%esp),%eax
  100417:	8b 14 c5 24 90 10 00 	mov    0x109024(,%eax,8),%edx
  10041e:	8b 04 c5 20 90 10 00 	mov    0x109020(,%eax,8),%eax
  100425:	0f b7 74 24 04       	movzwl 0x4(%esp),%esi
  10042a:	c1 e6 10             	shl    $0x10,%esi
  10042d:	89 f7                	mov    %esi,%edi
  10042f:	8b 74 24 14          	mov    0x14(%esp),%esi
  100433:	0f b7 f6             	movzwl %si,%esi
  100436:	09 fe                	or     %edi,%esi
  100438:	bf 00 00 00 00       	mov    $0x0,%edi
  10043d:	89 c5                	mov    %eax,%ebp
  10043f:	09 f5                	or     %esi,%ebp
  100441:	89 e9                	mov    %ebp,%ecx
  100443:	89 d0                	mov    %edx,%eax
  100445:	09 f8                	or     %edi,%eax
  100447:	89 c3                	mov    %eax,%ebx
  100449:	8b 44 24 30          	mov    0x30(%esp),%eax
  10044d:	89 0c c5 20 90 10 00 	mov    %ecx,0x109020(,%eax,8)
  100454:	89 1c c5 24 90 10 00 	mov    %ebx,0x109024(,%eax,8)
  10045b:	90                   	nop
  10045c:	83 c4 1c             	add    $0x1c,%esp
  10045f:	5b                   	pop    %ebx
  100460:	5e                   	pop    %esi
  100461:	5f                   	pop    %edi
  100462:	5d                   	pop    %ebp
  100463:	c3                   	ret    

00100464 <_init_idt>:
  100464:	83 ec 04             	sub    $0x4,%esp
  100467:	6a 00                	push   $0x0
  100469:	68 7f 04 10 00       	push   $0x10047f
  10046e:	6a 08                	push   $0x8
  100470:	6a 00                	push   $0x0
  100472:	e8 1e ff ff ff       	call   100395 <_set_idt_entry>
  100477:	83 c4 10             	add    $0x10,%esp
  10047a:	90                   	nop
  10047b:	83 c4 04             	add    $0x4,%esp
  10047e:	c3                   	ret    

0010047f <_asm_isr0>:
  10047f:	6a 00                	push   $0x0
  100481:	6a 00                	push   $0x0
  100483:	eb 00                	jmp    100485 <interrupt_wrapper>

00100485 <interrupt_wrapper>:
  100485:	89 e0                	mov    %esp,%eax
  100487:	83 e4 f0             	and    $0xfffffff0,%esp
  10048a:	83 ec 10             	sub    $0x10,%esp
  10048d:	89 04 24             	mov    %eax,(%esp)
  100490:	e8 24 00 00 00       	call   1004b9 <interrupt_handler>
  100495:	58                   	pop    %eax
  100496:	89 c4                	mov    %eax,%esp
  100498:	83 c4 08             	add    $0x8,%esp
  10049b:	cf                   	iret   

0010049c <isr0>:
  10049c:	83 ec 0c             	sub    $0xc,%esp
  10049f:	e8 e5 fc ff ff       	call   100189 <tty_clear>
  1004a4:	83 ec 0c             	sub    $0xc,%esp
  1004a7:	68 29 b0 10 00       	push   $0x10b029
  1004ac:	e8 a5 fc ff ff       	call   100156 <tty_put_str>
  1004b1:	83 c4 10             	add    $0x10,%esp
  1004b4:	90                   	nop
  1004b5:	83 c4 0c             	add    $0xc,%esp
  1004b8:	c3                   	ret    

001004b9 <interrupt_handler>:
  1004b9:	83 ec 0c             	sub    $0xc,%esp
  1004bc:	8b 44 24 10          	mov    0x10(%esp),%eax
  1004c0:	8b 00                	mov    (%eax),%eax
  1004c2:	85 c0                	test   %eax,%eax
  1004c4:	75 10                	jne    1004d6 <interrupt_handler+0x1d>
  1004c6:	83 ec 0c             	sub    $0xc,%esp
  1004c9:	ff 74 24 1c          	push   0x1c(%esp)
  1004cd:	e8 ca ff ff ff       	call   10049c <isr0>
  1004d2:	83 c4 10             	add    $0x10,%esp
  1004d5:	90                   	nop
  1004d6:	90                   	nop
  1004d7:	83 c4 0c             	add    $0xc,%esp
  1004da:	c3                   	ret    
